; Function Attrs: mustprogress nounwind uwtable
define internal void @_ZN12_GLOBAL__N_115MCMachOStreamer21emitLocalCommonSymbolEPN4llvm8MCSymbolEmNS1_5AlignE(ptr noundef nonnull align 8 dereferenceable(456) %0, ptr noundef %1, i64 noundef %2, i8 %3) unnamed_addr #0 align 2 {
  %5 = getelementptr inbounds nuw i8, ptr %0, i64 8
  %6 = load ptr, ptr %5, align 8
  %7 = getelementptr inbounds nuw i8, ptr %6, i64 168
  %8 = load ptr, ptr %7, align 8
  %9 = getelementptr inbounds nuw i8, ptr %8, i64 616
  %10 = load ptr, ptr %9, align 8
  %11 = load ptr, ptr %0, align 8
  %12 = getelementptr inbounds nuw i8, ptr %11, i64 480
  %13 = load ptr, ptr %12, align 8
  tail call void %13(ptr noundef nonnull align 8 dereferenceable(456) %0, ptr noundef %10, ptr noundef %1, i64 noundef %2, i8 %3, ptr null) #17
  ret void
}